target datalayout = "e-m:e-p270:32:32-p271:32:32-p272:64:64-i64:64-i128:128-f80:128-n8:16:32:64-S128"
target triple = "x86_64-unknown-linux-gnu"

%struct.IDEDMA = type { ptr, %struct.QEMUIOVector, ptr }
%struct.QEMUIOVector = type { ptr, i32, %union.anon }
%union.anon = type { %struct.anon }
%struct.anon = type { i32, %struct.iovec }
%struct.iovec = type { ptr, i64 }
%struct.IDEDMAOps = type { ptr, ptr, ptr, ptr, ptr, ptr, ptr, ptr, ptr, ptr }
%struct.IDEBus = type { %struct.BusState, ptr, ptr, [2 x %struct.IDEState], ptr, i32, i32, ptr, i8, i8, ptr, i32, i8, i64, i32, %struct.PortioList, %struct.PortioList, ptr }
%struct.BusState = type { %struct.Object, ptr, ptr, ptr, i32, i8, i8, i32, %union.BusChildHead, %struct.BusStateEntry, %struct.ResettableState }
%struct.Object = type { ptr, ptr, ptr, i32, ptr }
%union.BusChildHead = type { %struct.QTailQLink }
%struct.QTailQLink = type { ptr, ptr }
%struct.BusStateEntry = type { ptr, ptr }
%struct.ResettableState = type { i32, i8, i8 }
%struct.IDEState = type { ptr, i8, i32, i32, i32, i32, i32, i32, i32, i64, i32, i32, [512 x i8], i32, [21 x i8], [41 x i8], i64, i8, i8, i32, i8, i8, i8, i8, i8, i8, i8, i8, i8, i8, i8, i8, i8, ptr, [9 x i8], %struct.unreported_events, i8, i8, i8, i8, i8, i32, i32, i32, i32, i32, i32, %struct.BlockAcctCookie, ptr, %struct.QEMUIOVector, %struct.anon.1, i64, i32, %struct.QEMUSGList, i32, ptr, ptr, ptr, ptr, i32, i32, i32, i8, ptr, i32, i8, i32, ptr, i32, i32, i8, i8, i32, i8, ptr, i32 }
%struct.unreported_events = type { i8, i8 }
%struct.BlockAcctCookie = type { i64, i64, i32 }
%struct.anon.1 = type { ptr }
%struct.QEMUSGList = type { ptr, i32, i32, i64, ptr, ptr }
%struct.PortioList = type { ptr, ptr, ptr, i32, ptr, ptr, ptr, i8 }

; Function Attrs: nounwind sspstrong uwtable
define internal void @ide_cmd_done(ptr noundef %s) #0 {
entry:
  %s.addr = alloca ptr, align 8
  store ptr %s, ptr %s.addr, align 8
  %0 = load ptr, ptr %s.addr, align 8
  %bus = getelementptr inbounds %struct.IDEState, ptr %0, i32 0, i32 0
  %1 = load ptr, ptr %bus, align 8
  %dma = getelementptr inbounds %struct.IDEBus, ptr %1, i32 0, i32 7
  %2 = load ptr, ptr %dma, align 8
  %ops = getelementptr inbounds %struct.IDEDMA, ptr %2, i32 0, i32 0
  %3 = load ptr, ptr %ops, align 8
  %cmd_done = getelementptr inbounds %struct.IDEDMAOps, ptr %3, i32 0, i32 8
  %4 = load ptr, ptr %cmd_done, align 8
  %tobool = icmp ne ptr %4, null
  br i1 %tobool, label %if.then, label %if.end

if.then:                                          ; preds = %entry
  %5 = load ptr, ptr %s.addr, align 8
  %bus1 = getelementptr inbounds %struct.IDEState, ptr %5, i32 0, i32 0
  %6 = load ptr, ptr %bus1, align 8
  %dma2 = getelementptr inbounds %struct.IDEBus, ptr %6, i32 0, i32 7
  %7 = load ptr, ptr %dma2, align 8
  %ops3 = getelementptr inbounds %struct.IDEDMA, ptr %7, i32 0, i32 0
  %8 = load ptr, ptr %ops3, align 8
  %cmd_done4 = getelementptr inbounds %struct.IDEDMAOps, ptr %8, i32 0, i32 8
  %9 = load ptr, ptr %cmd_done4, align 8
  %10 = load ptr, ptr %s.addr, align 8
  %bus5 = getelementptr inbounds %struct.IDEState, ptr %10, i32 0, i32 0
  %11 = load ptr, ptr %bus5, align 8
  %dma6 = getelementptr inbounds %struct.IDEBus, ptr %11, i32 0, i32 7
  %12 = load ptr, ptr %dma6, align 8
  call void %9(ptr noundef %12)
  br label %if.end

if.end:                                           ; preds = %if.then, %entry
  ret void
}

; Function Attrs: nounwind sspstrong uwtable
define internal void @ide_transfer_halt(ptr noundef %s) #0 {
entry:
  %s.addr = alloca ptr, align 8
  store ptr %s, ptr %s.addr, align 8
  %0 = load ptr, ptr %s.addr, align 8
  %end_transfer_func = getelementptr inbounds %struct.IDEState, ptr %0, i32 0, i32 55
  store ptr @ide_transfer_stop, ptr %end_transfer_func, align 8
  %1 = load ptr, ptr %s.addr, align 8
  %io_buffer = getelementptr inbounds %struct.IDEState, ptr %1, i32 0, i32 58
  %2 = load ptr, ptr %io_buffer, align 8
  %3 = load ptr, ptr %s.addr, align 8
  %data_ptr = getelementptr inbounds %struct.IDEState, ptr %3, i32 0, i32 56
  store ptr %2, ptr %data_ptr, align 8
  %4 = load ptr, ptr %s.addr, align 8
  %io_buffer1 = getelementptr inbounds %struct.IDEState, ptr %4, i32 0, i32 58
  %5 = load ptr, ptr %io_buffer1, align 8
  %6 = load ptr, ptr %s.addr, align 8
  %data_end = getelementptr inbounds %struct.IDEState, ptr %6, i32 0, i32 57
  store ptr %5, ptr %data_end, align 8
  %7 = load ptr, ptr %s.addr, align 8
  %status = getelementptr inbounds %struct.IDEState, ptr %7, i32 0, i32 29
  %8 = load i8, ptr %status, align 1
  %conv = zext i8 %8 to i32
  %and = and i32 %conv, -9
  %conv2 = trunc i32 %and to i8
  store i8 %conv2, ptr %status, align 1
  ret void
}

; Function Attrs: nounwind sspstrong uwtable
define internal zeroext i16 @cpu_to_le16(i16 noundef zeroext %v) #0 {
entry:
  %v.addr = alloca i16, align 2
  store i16 %v, ptr %v.addr, align 2
  %0 = load i16, ptr %v.addr, align 2
  ret i16 %0
}

; Function Attrs: nounwind sspstrong uwtable
define dso_local void @ide_transfer_stop(ptr noundef %s) #0 {
entry:
  %s.addr = alloca ptr, align 8
  store ptr %s, ptr %s.addr, align 8
  %0 = load ptr, ptr %s.addr, align 8
  call void @ide_transfer_halt(ptr noundef %0)
  %1 = load ptr, ptr %s.addr, align 8
  call void @ide_cmd_done(ptr noundef %1)
  ret void
}

; Function Attrs: nounwind sspstrong uwtable
define internal void @put_le16(ptr noundef %p, i32 noundef %v) #0 {
entry:
  %p.addr = alloca ptr, align 8
  %v.addr = alloca i32, align 4
  store ptr %p, ptr %p.addr, align 8
  store i32 %v, ptr %v.addr, align 4
  %0 = load i32, ptr %v.addr, align 4
  %conv = trunc i32 %0 to i16
  %call = call zeroext i16 @cpu_to_le16(i16 noundef zeroext %conv)
  %1 = load ptr, ptr %p.addr, align 8
  store i16 %call, ptr %1, align 2
  ret void
}

; Function Attrs: nounwind sspstrong uwtable
define dso_local void @ide_abort_command(ptr noundef %s) #0 {
entry:
  %s.addr = alloca ptr, align 8
  store ptr %s, ptr %s.addr, align 8
  %0 = load ptr, ptr %s.addr, align 8
  %status = getelementptr inbounds %struct.IDEState, ptr %0, i32 0, i32 29
  store i8 65, ptr %status, align 1
  %1 = load ptr, ptr %s.addr, align 8
  %error = getelementptr inbounds %struct.IDEState, ptr %1, i32 0, i32 18
  store i8 4, ptr %error, align 1
  %2 = load ptr, ptr %s.addr, align 8
  call void @ide_transfer_stop(ptr noundef %2)
  ret void
}

; Function Attrs: nounwind sspstrong uwtable
define internal zeroext i1 @cmd_set_features(ptr noundef %s, i8 noundef zeroext %cmd) #0 {
entry:
  %retval = alloca i1, align 1
  %s.addr = alloca ptr, align 8
  %cmd.addr = alloca i8, align 1
  %identify_data = alloca ptr, align 8
  %val = alloca i8, align 1
  store ptr %s, ptr %s.addr, align 8
  store i8 %cmd, ptr %cmd.addr, align 1
  %0 = load ptr, ptr %s.addr, align 8
  %blk = getelementptr inbounds %struct.IDEState, ptr %0, i32 0, i32 33
  %1 = load ptr, ptr %blk, align 8
  %tobool = icmp ne ptr %1, null
  br i1 %tobool, label %if.end, label %if.then

if.then:                                          ; preds = %entry
  %2 = load ptr, ptr %s.addr, align 8
  call void @ide_abort_command(ptr noundef %2)
  store i1 true, ptr %retval, align 1
  br label %return

if.end:                                           ; preds = %entry
  %3 = load ptr, ptr %s.addr, align 8
  %feature = getelementptr inbounds %struct.IDEState, ptr %3, i32 0, i32 17
  %4 = load i8, ptr %feature, align 8
  %conv = zext i8 %4 to i32
  switch i32 %conv, label %sw.epilog50 [
    i32 1, label %sw.bb
    i32 129, label %sw.bb
    i32 2, label %sw.bb7
    i32 130, label %sw.bb10
    i32 204, label %sw.bb15
    i32 102, label %sw.bb16
    i32 170, label %sw.bb18
    i32 85, label %sw.bb18
    i32 5, label %sw.bb18
    i32 133, label %sw.bb18
    i32 105, label %sw.bb18
    i32 103, label %sw.bb18
    i32 150, label %sw.bb18
    i32 154, label %sw.bb18
    i32 66, label %sw.bb18
    i32 194, label %sw.bb18
    i32 3, label %sw.bb19
  ]

sw.bb:                                            ; preds = %if.end, %if.end
  %5 = load ptr, ptr %s.addr, align 8
  %drive_kind = getelementptr inbounds %struct.IDEState, ptr %5, i32 0, i32 2
  %6 = load i32, ptr %drive_kind, align 4
  %cmp = icmp ne i32 %6, 2
  br i1 %cmp, label %if.then2, label %if.end3

if.then2:                                         ; preds = %sw.bb
  br label %abort_cmd

if.end3:                                          ; preds = %sw.bb
  %7 = load ptr, ptr %s.addr, align 8
  %feature4 = getelementptr inbounds %struct.IDEState, ptr %7, i32 0, i32 17
  %8 = load i8, ptr %feature4, align 8
  %conv5 = zext i8 %8 to i32
  %and = and i32 %conv5, 128
  %tobool6 = icmp ne i32 %and, 0
  %lnot = xor i1 %tobool6, true
  %9 = load ptr, ptr %s.addr, align 8
  %io8 = getelementptr inbounds %struct.IDEState, ptr %9, i32 0, i32 30
  %frombool = zext i1 %lnot to i8
  store i8 %frombool, ptr %io8, align 2
  store i1 true, ptr %retval, align 1
  br label %return

sw.bb7:                                           ; preds = %if.end
  %10 = load ptr, ptr %s.addr, align 8
  %blk8 = getelementptr inbounds %struct.IDEState, ptr %10, i32 0, i32 33
  %11 = load ptr, ptr %blk8, align 8
  call void @blk_set_enable_write_cache(ptr noundef %11, i1 noundef zeroext true)
  %12 = load ptr, ptr %s.addr, align 8
  %identify_data9 = getelementptr inbounds %struct.IDEState, ptr %12, i32 0, i32 12
  %arraydecay = getelementptr inbounds [512 x i8], ptr %identify_data9, i64 0, i64 0
  store ptr %arraydecay, ptr %identify_data, align 8
  %13 = load ptr, ptr %identify_data, align 8
  %add.ptr = getelementptr i16, ptr %13, i64 85
  call void @put_le16(ptr noundef %add.ptr, i32 noundef 16417)
  store i1 true, ptr %retval, align 1
  br label %return

sw.bb10:                                          ; preds = %if.end
  %14 = load ptr, ptr %s.addr, align 8
  %blk11 = getelementptr inbounds %struct.IDEState, ptr %14, i32 0, i32 33
  %15 = load ptr, ptr %blk11, align 8
  call void @blk_set_enable_write_cache(ptr noundef %15, i1 noundef zeroext false)
  %16 = load ptr, ptr %s.addr, align 8
  %identify_data12 = getelementptr inbounds %struct.IDEState, ptr %16, i32 0, i32 12
  %arraydecay13 = getelementptr inbounds [512 x i8], ptr %identify_data12, i64 0, i64 0
  store ptr %arraydecay13, ptr %identify_data, align 8
  %17 = load ptr, ptr %identify_data, align 8
  %add.ptr14 = getelementptr i16, ptr %17, i64 85
  call void @put_le16(ptr noundef %add.ptr14, i32 noundef 16385)
  %18 = load ptr, ptr %s.addr, align 8
  call void @ide_flush_cache(ptr noundef %18)
  store i1 false, ptr %retval, align 1
  br label %return

sw.bb15:                                          ; preds = %if.end
  %19 = load ptr, ptr %s.addr, align 8
  %reset_reverts = getelementptr inbounds %struct.IDEState, ptr %19, i32 0, i32 31
  store i8 1, ptr %reset_reverts, align 1
  store i1 true, ptr %retval, align 1
  br label %return

sw.bb16:                                          ; preds = %if.end
  %20 = load ptr, ptr %s.addr, align 8
  %reset_reverts17 = getelementptr inbounds %struct.IDEState, ptr %20, i32 0, i32 31
  store i8 0, ptr %reset_reverts17, align 1
  store i1 true, ptr %retval, align 1
  br label %return

sw.bb18:                                          ; preds = %if.end, %if.end, %if.end, %if.end, %if.end, %if.end, %if.end, %if.end, %if.end, %if.end
  store i1 true, ptr %retval, align 1
  br label %return

sw.bb19:                                          ; preds = %if.end
  %21 = load ptr, ptr %s.addr, align 8
  %nsector = getelementptr inbounds %struct.IDEState, ptr %21, i32 0, i32 19
  %22 = load i32, ptr %nsector, align 4
  %and20 = and i32 %22, 7
  %conv21 = trunc i32 %and20 to i8
  store i8 %conv21, ptr %val, align 1
  %23 = load ptr, ptr %s.addr, align 8
  %identify_data22 = getelementptr inbounds %struct.IDEState, ptr %23, i32 0, i32 12
  %arraydecay23 = getelementptr inbounds [512 x i8], ptr %identify_data22, i64 0, i64 0
  store ptr %arraydecay23, ptr %identify_data, align 8
  %24 = load ptr, ptr %s.addr, align 8
  %nsector24 = getelementptr inbounds %struct.IDEState, ptr %24, i32 0, i32 19
  %25 = load i32, ptr %nsector24, align 4
  %shr = lshr i32 %25, 3
  switch i32 %shr, label %sw.default [
    i32 0, label %sw.bb25
    i32 1, label %sw.bb25
    i32 2, label %sw.bb29
    i32 4, label %sw.bb34
    i32 8, label %sw.bb42
  ]

sw.bb25:                                          ; preds = %sw.bb19, %sw.bb19
  %26 = load ptr, ptr %identify_data, align 8
  %add.ptr26 = getelementptr i16, ptr %26, i64 62
  call void @put_le16(ptr noundef %add.ptr26, i32 noundef 7)
  %27 = load ptr, ptr %identify_data, align 8
  %add.ptr27 = getelementptr i16, ptr %27, i64 63
  call void @put_le16(ptr noundef %add.ptr27, i32 noundef 7)
  %28 = load ptr, ptr %identify_data, align 8
  %add.ptr28 = getelementptr i16, ptr %28, i64 88
  call void @put_le16(ptr noundef %add.ptr28, i32 noundef 63)
  br label %sw.epilog

sw.bb29:                                          ; preds = %sw.bb19
  %29 = load ptr, ptr %identify_data, align 8
  %add.ptr30 = getelementptr i16, ptr %29, i64 62
  %30 = load i8, ptr %val, align 1
  %conv31 = zext i8 %30 to i32
  %add = add i32 %conv31, 8
  %shl = shl i32 1, %add
  %or = or i32 7, %shl
  call void @put_le16(ptr noundef %add.ptr30, i32 noundef %or)
  %31 = load ptr, ptr %identify_data, align 8
  %add.ptr32 = getelementptr i16, ptr %31, i64 63
  call void @put_le16(ptr noundef %add.ptr32, i32 noundef 7)
  %32 = load ptr, ptr %identify_data, align 8
  %add.ptr33 = getelementptr i16, ptr %32, i64 88
  call void @put_le16(ptr noundef %add.ptr33, i32 noundef 63)
  br label %sw.epilog

sw.bb34:                                          ; preds = %sw.bb19
  %33 = load ptr, ptr %identify_data, align 8
  %add.ptr35 = getelementptr i16, ptr %33, i64 62
  call void @put_le16(ptr noundef %add.ptr35, i32 noundef 7)
  %34 = load ptr, ptr %identify_data, align 8
  %add.ptr36 = getelementptr i16, ptr %34, i64 63
  %35 = load i8, ptr %val, align 1
  %conv37 = zext i8 %35 to i32
  %add38 = add i32 %conv37, 8
  %shl39 = shl i32 1, %add38
  %or40 = or i32 7, %shl39
  call void @put_le16(ptr noundef %add.ptr36, i32 noundef %or40)
  %36 = load ptr, ptr %identify_data, align 8
  %add.ptr41 = getelementptr i16, ptr %36, i64 88
  call void @put_le16(ptr noundef %add.ptr41, i32 noundef 63)
  br label %sw.epilog

sw.bb42:                                          ; preds = %sw.bb19
  %37 = load ptr, ptr %identify_data, align 8
  %add.ptr43 = getelementptr i16, ptr %37, i64 62
  call void @put_le16(ptr noundef %add.ptr43, i32 noundef 7)
  %38 = load ptr, ptr %identify_data, align 8
  %add.ptr44 = getelementptr i16, ptr %38, i64 63
  call void @put_le16(ptr noundef %add.ptr44, i32 noundef 7)
  %39 = load ptr, ptr %identify_data, align 8
  %add.ptr45 = getelementptr i16, ptr %39, i64 88
  %40 = load i8, ptr %val, align 1
  %conv46 = zext i8 %40 to i32
  %add47 = add i32 %conv46, 8
  %shl48 = shl i32 1, %add47
  %or49 = or i32 63, %shl48
  call void @put_le16(ptr noundef %add.ptr45, i32 noundef %or49)
  br label %sw.epilog

sw.default:                                       ; preds = %sw.bb19
  br label %abort_cmd

sw.epilog:                                        ; preds = %sw.bb42, %sw.bb34, %sw.bb29, %sw.bb25
  store i1 true, ptr %retval, align 1
  br label %return

sw.epilog50:                                      ; preds = %if.end
  br label %abort_cmd

abort_cmd:                                        ; preds = %sw.epilog50, %sw.default, %if.then2
  %41 = load ptr, ptr %s.addr, align 8
  call void @ide_abort_command(ptr noundef %41)
  store i1 true, ptr %retval, align 1
  br label %return

return:                                           ; preds = %abort_cmd, %sw.epilog, %sw.bb18, %sw.bb16, %sw.bb15, %sw.bb10, %sw.bb7, %if.end3, %if.then
  %42 = load i1, ptr %retval, align 1
  ret i1 %42
}