; Function Attrs: nounwind sspstrong uwtable
define internal noundef zeroext i1 @cmd_set_features(ptr noundef %s, i8 zeroext %cmd) #0 {
entry:
  %blk = getelementptr inbounds nuw i8, ptr %s, i64 672
  %0 = load ptr, ptr %blk, align 8
  %tobool.not = icmp eq ptr %0, null
  br i1 %tobool.not, label %if.then, label %if.end

if.then:                                          ; preds = %entry
  %status.i = getelementptr inbounds nuw i8, ptr %s, i64 665
  %error.i = getelementptr inbounds nuw i8, ptr %s, i64 649
  store i8 4, ptr %error.i, align 1
  %end_transfer_func.i.i.i = getelementptr inbounds nuw i8, ptr %s, i64 864
  store ptr @ide_transfer_stop, ptr %end_transfer_func.i.i.i, align 8
  %io_buffer.i.i.i = getelementptr inbounds nuw i8, ptr %s, i64 888
  %1 = load ptr, ptr %io_buffer.i.i.i, align 8
  %data_ptr.i.i.i = getelementptr inbounds nuw i8, ptr %s, i64 872
  store ptr %1, ptr %data_ptr.i.i.i, align 8
  %data_end.i.i.i = getelementptr inbounds nuw i8, ptr %s, i64 880
  store ptr %1, ptr %data_end.i.i.i, align 8
  store i8 65, ptr %status.i, align 1
  %s.val.i.i = load ptr, ptr %s, align 8
  %2 = getelementptr i8, ptr %s.val.i.i, i64 2120
  %s.val.val.i.i = load ptr, ptr %2, align 8
  %3 = load ptr, ptr %s.val.val.i.i, align 8
  %cmd_done.i.i.i = getelementptr inbounds nuw i8, ptr %3, i64 64
  %4 = load ptr, ptr %cmd_done.i.i.i, align 8
  %tobool.not.i.i.i = icmp eq ptr %4, null
  br i1 %tobool.not.i.i.i, label %return, label %if.then.i.i.i

if.then.i.i.i:                                    ; preds = %if.then
  tail call void %4(ptr noundef nonnull %s.val.val.i.i) #17
  br label %return

if.end:                                           ; preds = %entry
  %feature = getelementptr inbounds nuw i8, ptr %s, i64 648
  %5 = load i8, ptr %feature, align 8
  switch i8 %5, label %abort_cmd [
    i8 1, label %sw.bb
    i8 -127, label %sw.bb
    i8 2, label %sw.bb7
    i8 -126, label %sw.bb10
    i8 -52, label %sw.bb15
    i8 102, label %sw.bb16
    i8 -86, label %return
    i8 85, label %return
    i8 5, label %return
    i8 -123, label %return
    i8 105, label %return
    i8 103, label %return
    i8 -106, label %return
    i8 -102, label %return
    i8 66, label %return
    i8 -62, label %return
    i8 3, label %sw.bb19
  ]

sw.bb:                                            ; preds = %if.end, %if.end
  %drive_kind = getelementptr inbounds nuw i8, ptr %s, i64 12
  %6 = load i32, ptr %drive_kind, align 4
  %cmp.not = icmp eq i32 %6, 2
  br i1 %cmp.not, label %if.end3, label %abort_cmd

if.end3:                                          ; preds = %sw.bb
  %tobool6.not = icmp sgt i8 %5, -1
  %io8 = getelementptr inbounds nuw i8, ptr %s, i64 666
  %frombool = zext i1 %tobool6.not to i8
  store i8 %frombool, ptr %io8, align 2
  br label %return

sw.bb7:                                           ; preds = %if.end
  tail call void @blk_set_enable_write_cache(ptr noundef nonnull %0, i1 noundef zeroext true) #17
  %add.ptr = getelementptr i8, ptr %s, i64 226
  store i16 16417, ptr %add.ptr, align 2
  br label %return

sw.bb10:                                          ; preds = %if.end
  tail call void @blk_set_enable_write_cache(ptr noundef nonnull %0, i1 noundef zeroext false) #17
  %add.ptr14 = getelementptr i8, ptr %s, i64 226
  store i16 16385, ptr %add.ptr14, align 2
  tail call fastcc void @ide_flush_cache(ptr noundef nonnull %s)
  br label %return

sw.bb15:                                          ; preds = %if.end
  %reset_reverts = getelementptr inbounds nuw i8, ptr %s, i64 667
  store i8 1, ptr %reset_reverts, align 1
  br label %return

sw.bb16:                                          ; preds = %if.end
  %reset_reverts17 = getelementptr inbounds nuw i8, ptr %s, i64 667
  store i8 0, ptr %reset_reverts17, align 1
  br label %return

sw.bb19:                                          ; preds = %if.end
  %nsector = getelementptr inbounds nuw i8, ptr %s, i64 652
  %7 = load i32, ptr %nsector, align 4
  %shr = lshr i32 %7, 3
  switch i32 %shr, label %abort_cmd [
    i32 0, label %sw.bb25
    i32 1, label %sw.bb25
    i32 2, label %sw.bb29
    i32 4, label %sw.bb34
    i32 8, label %sw.bb42
  ]

sw.bb25:                                          ; preds = %sw.bb19, %sw.bb19
  %add.ptr26 = getelementptr i8, ptr %s, i64 180
  store i16 7, ptr %add.ptr26, align 2
  %add.ptr27 = getelementptr i8, ptr %s, i64 182
  store i16 7, ptr %add.ptr27, align 2
  %add.ptr28 = getelementptr i8, ptr %s, i64 232
  store i16 63, ptr %add.ptr28, align 2
  br label %return

sw.bb29:                                          ; preds = %sw.bb19
  %conv21 = and i32 %7, 7
  %add.ptr30 = getelementptr i8, ptr %s, i64 180
  %shl = shl nuw nsw i32 256, %conv21
  %8 = trunc nuw i32 %shl to i16
  %conv.i = or disjoint i16 %8, 7
  store i16 %conv.i, ptr %add.ptr30, align 2
  %add.ptr32 = getelementptr i8, ptr %s, i64 182
  store i16 7, ptr %add.ptr32, align 2
  %add.ptr33 = getelementptr i8, ptr %s, i64 232
  store i16 63, ptr %add.ptr33, align 2
  br label %return

sw.bb34:                                          ; preds = %sw.bb19
  %add.ptr35 = getelementptr i8, ptr %s, i64 180
  store i16 7, ptr %add.ptr35, align 2
  %add.ptr36 = getelementptr i8, ptr %s, i64 182
  %conv37 = and i32 %7, 7
  %shl39 = shl nuw nsw i32 256, %conv37
  %9 = trunc nuw i32 %shl39 to i16
  %conv.i32 = or disjoint i16 %9, 7
  store i16 %conv.i32, ptr %add.ptr36, align 2
  %add.ptr41 = getelementptr i8, ptr %s, i64 232
  store i16 63, ptr %add.ptr41, align 2
  br label %return

sw.bb42:                                          ; preds = %sw.bb19
  %add.ptr43 = getelementptr i8, ptr %s, i64 180
  store i16 7, ptr %add.ptr43, align 2
  %add.ptr44 = getelementptr i8, ptr %s, i64 182
  store i16 7, ptr %add.ptr44, align 2
  %add.ptr45 = getelementptr i8, ptr %s, i64 232
  %conv46 = and i32 %7, 7
  %shl48 = shl nuw nsw i32 256, %conv46
  %10 = trunc nuw i32 %shl48 to i16
  %conv.i33 = or disjoint i16 %10, 63
  store i16 %conv.i33, ptr %add.ptr45, align 2
  br label %return

abort_cmd:                                        ; preds = %if.end, %sw.bb19, %sw.bb
  %status.i34 = getelementptr inbounds nuw i8, ptr %s, i64 665
  %error.i35 = getelementptr inbounds nuw i8, ptr %s, i64 649
  store i8 4, ptr %error.i35, align 1
  %end_transfer_func.i.i.i36 = getelementptr inbounds nuw i8, ptr %s, i64 864
  store ptr @ide_transfer_stop, ptr %end_transfer_func.i.i.i36, align 8
  %io_buffer.i.i.i37 = getelementptr inbounds nuw i8, ptr %s, i64 888
  %11 = load ptr, ptr %io_buffer.i.i.i37, align 8
  %data_ptr.i.i.i38 = getelementptr inbounds nuw i8, ptr %s, i64 872
  store ptr %11, ptr %data_ptr.i.i.i38, align 8
  %data_end.i.i.i39 = getelementptr inbounds nuw i8, ptr %s, i64 880
  store ptr %11, ptr %data_end.i.i.i39, align 8
  store i8 65, ptr %status.i34, align 1
  %s.val.i.i40 = load ptr, ptr %s, align 8
  %12 = getelementptr i8, ptr %s.val.i.i40, i64 2120
  %s.val.val.i.i41 = load ptr, ptr %12, align 8
  %13 = load ptr, ptr %s.val.val.i.i41, align 8
  %cmd_done.i.i.i42 = getelementptr inbounds nuw i8, ptr %13, i64 64
  %14 = load ptr, ptr %cmd_done.i.i.i42, align 8
  %tobool.not.i.i.i43 = icmp eq ptr %14, null
  br i1 %tobool.not.i.i.i43, label %return, label %if.then.i.i.i44

if.then.i.i.i44:                                  ; preds = %abort_cmd
  tail call void %14(ptr noundef nonnull %s.val.val.i.i41) #17
  br label %return

return:                                           ; preds = %if.then.i.i.i44, %abort_cmd, %if.then.i.i.i, %if.then, %sw.bb25, %sw.bb29, %sw.bb34, %sw.bb42, %if.end, %if.end, %if.end, %if.end, %if.end, %if.end, %if.end, %if.end, %if.end, %if.end, %sw.bb16, %sw.bb15, %sw.bb10, %sw.bb7, %if.end3
  %retval.0 = phi i1 [ true, %sw.bb16 ], [ true, %sw.bb15 ], [ false, %sw.bb10 ], [ true, %sw.bb7 ], [ true, %if.end3 ], [ true, %if.end ], [ true, %if.end ], [ true, %if.end ], [ true, %if.end ], [ true, %if.end ], [ true, %if.end ], [ true, %if.end ], [ true, %if.end ], [ true, %if.end ], [ true, %if.end ], [ true, %sw.bb42 ], [ true, %sw.bb34 ], [ true, %sw.bb29 ], [ true, %sw.bb25 ], [ true, %if.then ], [ true, %if.then.i.i.i ], [ true, %abort_cmd ], [ true, %if.then.i.i.i44 ]
  ret i1 %retval.0
}